target datalayout = "e-m:e-p270:32:32-p271:32:32-p272:64:64-i64:64-i128:128-f80:128-n8:16:32:64-S128"
target triple = "x86_64-unknown-linux-gnu"

@.str.2 = private unnamed_addr constant [18 x i8] c"qemu-text-console\00", align 1
@.str.4 = private unnamed_addr constant [99 x i8] c"/home/dtcxzyw/WorkSpace/Projects/compilers/llvm-opt-benchmark/bench/qemu/qemu/include/ui/console.h\00", align 1
@__func__.QEMU_TEXT_CONSOLE = private unnamed_addr constant [18 x i8] c"QEMU_TEXT_CONSOLE\00", align 1
@.str.5 = private unnamed_addr constant [24 x i8] c"qemu-fixed-text-console\00", align 1

; Function Attrs: nounwind sspstrong uwtable
define internal ptr @QEMU_TEXT_CONSOLE(ptr noundef %obj) #0 {
entry:
  %obj.addr = alloca ptr, align 8
  store ptr %obj, ptr %obj.addr, align 8
  %0 = load ptr, ptr %obj.addr, align 8
  %call = call ptr @object_dynamic_cast_assert(ptr noundef %0, ptr noundef @.str.2, ptr noundef @.str.4, i32 noundef 18, ptr noundef @__func__.QEMU_TEXT_CONSOLE)
  ret ptr %call
}

; Function Attrs: nounwind sspstrong uwtable
define internal void @text_console_invalidate(ptr noundef %opaque) #0 {
entry:
  %opaque.addr = alloca ptr, align 8
  %s = alloca ptr, align 8
  store ptr %opaque, ptr %opaque.addr, align 8
  %0 = load ptr, ptr %opaque.addr, align 8
  %call = call ptr @QEMU_TEXT_CONSOLE(ptr noundef %0)
  store ptr %call, ptr %s, align 8
  %1 = load ptr, ptr %s, align 8
  %call1 = call ptr @object_dynamic_cast(ptr noundef %1, ptr noundef @.str.5)
  %tobool = icmp ne ptr %call1, null
  br i1 %tobool, label %if.end, label %if.then

if.then:                                          ; preds = %entry
  %2 = load ptr, ptr %s, align 8
  %call2 = call ptr @QEMU_TEXT_CONSOLE(ptr noundef %2)
  call void @text_console_resize(ptr noundef %call2)
  br label %if.end

if.end:                                           ; preds = %if.then, %entry
  %3 = load ptr, ptr %s, align 8
  call void @console_refresh(ptr noundef %3)
  ret void
}