; Function Attrs: nounwind sspstrong uwtable
define internal void @text_console_invalidate(ptr noundef %opaque) #0 {
entry:
  %call.i = tail call ptr @object_dynamic_cast_assert(ptr noundef %opaque, ptr noundef nonnull @.str.2, ptr noundef nonnull @.str.4, i32 noundef 18, ptr noundef nonnull @__func__.QEMU_TEXT_CONSOLE) #12
  %call1 = tail call ptr @object_dynamic_cast(ptr noundef %call.i, ptr noundef nonnull @.str.5) #12
  %tobool.not = icmp eq ptr %call1, null
  br i1 %tobool.not, label %if.then, label %if.end

if.then:                                          ; preds = %entry
  %call.i3 = tail call ptr @object_dynamic_cast_assert(ptr noundef %call.i, ptr noundef nonnull @.str.2, ptr noundef nonnull @.str.4, i32 noundef 18, ptr noundef nonnull @__func__.QEMU_TEXT_CONSOLE) #12
  tail call fastcc void @text_console_resize(ptr noundef %call.i3)
  br label %if.end

if.end:                                           ; preds = %if.then, %entry
  tail call fastcc void @console_refresh(ptr noundef %call.i)
  ret void
}